; Function Attrs: mustprogress nounwind uwtable
define dso_local void @_ZN4llvm16TargetPassConfig12addPrintPassERKNSt7__cxx1112basic_stringIcSt11char_traitsIcESaIcEEE(ptr nocapture noundef nonnull readonly align 8 dereferenceable(134) %0, ptr noundef nonnull align 8 dereferenceable(32) %1) local_unnamed_addr #0 align 2 {
  %3 = load i8, ptr getelementptr inbounds (i8, ptr @_ZL14PrintAfterISel, i64 128), align 8
  %4 = trunc i8 %3 to i1
  br i1 %4, label %5, label %13

5:                                                ; preds = %2
  %6 = getelementptr inbounds nuw i8, ptr %0, i64 32
  %7 = load ptr, ptr %6, align 8
  %8 = tail call noundef nonnull align 8 dereferenceable(48) ptr @_ZN4llvm4dbgsEv() #26
  %9 = tail call noundef ptr @_ZN4llvm32createMachineFunctionPrinterPassERNS_11raw_ostreamERKNSt7__cxx1112basic_stringIcSt11char_traitsIcESaIcEEE(ptr noundef nonnull align 8 dereferenceable(48) %8, ptr noundef nonnull align 8 dereferenceable(32) %1) #26
  %10 = load ptr, ptr %7, align 8
  %11 = getelementptr inbounds i8, ptr %10, i64 16
  %12 = load ptr, ptr %11, align 8
  tail call void %12(ptr noundef nonnull align 8 dereferenceable(8) %7, ptr noundef %9) #26
  br label %13

13:                                               ; preds = %5, %2
  ret void
}